target datalayout = "e-m:e-p270:32:32-p271:32:32-p272:64:64-i64:64-i128:128-f80:128-n8:16:32:64-S128"
target triple = "x86_64-pc-linux-gnu"

; Function Attrs: nounwind uwtable
define hidden ptr @PyExpat_XML_ParserCreate_MM(ptr noundef %0, ptr noundef %1, ptr noundef %2) #0 {
  %4 = alloca ptr, align 8
  %5 = alloca ptr, align 8
  %6 = alloca ptr, align 8
  store ptr %0, ptr %4, align 8, !tbaa !3
  store ptr %1, ptr %5, align 8, !tbaa !8
  store ptr %2, ptr %6, align 8, !tbaa !3
  %7 = load ptr, ptr %4, align 8, !tbaa !3
  %8 = load ptr, ptr %5, align 8, !tbaa !8
  %9 = load ptr, ptr %6, align 8, !tbaa !3
  %10 = call ptr @parserCreate(ptr noundef %7, ptr noundef %8, ptr noundef %9, ptr noundef null)
  ret ptr %10
}

; Function Attrs: nounwind uwtable
define hidden ptr @PyExpat_XML_ParserCreateNS(ptr noundef %0, i8 noundef signext %1) #0 {
  %3 = alloca ptr, align 8
  %4 = alloca i8, align 1
  %5 = alloca [2 x i8], align 1
  store ptr %0, ptr %3, align 8, !tbaa !3
  store i8 %1, ptr %4, align 1, !tbaa !9
  call void @llvm.lifetime.start.p0(i64 2, ptr %5) #11
  %6 = load i8, ptr %4, align 1, !tbaa !9
  store i8 %6, ptr %5, align 1, !tbaa !9
  %7 = getelementptr inbounds i8, ptr %5, i64 1
  store i8 0, ptr %7, align 1, !tbaa !9
  %8 = load ptr, ptr %3, align 8, !tbaa !3
  %9 = getelementptr inbounds [2 x i8], ptr %5, i64 0, i64 0
  %10 = call ptr @PyExpat_XML_ParserCreate_MM(ptr noundef %8, ptr noundef null, ptr noundef %9)
  call void @llvm.lifetime.end.p0(i64 2, ptr %5) #11
  ret ptr %10
}